target datalayout = "e-m:e-p270:32:32-p271:32:32-p272:64:64-i64:64-i128:128-f80:128-n8:16:32:64-S128"
target triple = "x86_64-pc-linux-gnu"

@.str.18 = private unnamed_addr constant [30 x i8] c"../openssl/test/threadstest.c\00", align 1
@.str.55 = private unnamed_addr constant [5 x i8] c"lock\00", align 1
@.str.56 = private unnamed_addr constant [30 x i8] c"CRYPTO_THREAD_read_lock(lock)\00", align 1
@.str.57 = private unnamed_addr constant [27 x i8] c"CRYPTO_THREAD_unlock(lock)\00", align 1
@.str.58 = private unnamed_addr constant [31 x i8] c"CRYPTO_THREAD_write_lock(lock)\00", align 1

; Function Attrs: nounwind uwtable
define internal i32 @test_lock() #0 {
  %1 = alloca i32, align 4
  %2 = alloca ptr, align 8
  %3 = alloca i32, align 4
  %4 = alloca i32, align 4
  call void @llvm.lifetime.start.p0(i64 8, ptr %2) #10
  %5 = call ptr @CRYPTO_THREAD_lock_new()
  store ptr %5, ptr %2, align 8, !tbaa !13
  call void @llvm.lifetime.start.p0(i64 4, ptr %3) #10
  %6 = load ptr, ptr %2, align 8, !tbaa !13
  %7 = call i32 @test_ptr(ptr noundef @.str.18, i32 noundef 93, ptr noundef @.str.55, ptr noundef %6)
  %8 = icmp ne i32 %7, 0
  br i1 %8, label %10, label %9

9:                                                ; preds = %0
  store i32 0, ptr %1, align 4
  store i32 1, ptr %4, align 4
  br label %43

10:                                               ; preds = %0
  %11 = load ptr, ptr %2, align 8, !tbaa !13
  %12 = call i32 @CRYPTO_THREAD_read_lock(ptr noundef %11)
  %13 = icmp ne i32 %12, 0
  %14 = zext i1 %13 to i32
  %15 = call i32 @test_true(ptr noundef @.str.18, i32 noundef 96, ptr noundef @.str.56, i32 noundef %14)
  %16 = icmp ne i32 %15, 0
  br i1 %16, label %17, label %38

17:                                               ; preds = %10
  %18 = load ptr, ptr %2, align 8, !tbaa !13
  %19 = call i32 @CRYPTO_THREAD_unlock(ptr noundef %18)
  %20 = icmp ne i32 %19, 0
  %21 = zext i1 %20 to i32
  %22 = call i32 @test_true(ptr noundef @.str.18, i32 noundef 97, ptr noundef @.str.57, i32 noundef %21)
  %23 = icmp ne i32 %22, 0
  br i1 %23, label %24, label %38

24:                                               ; preds = %17
  %25 = load ptr, ptr %2, align 8, !tbaa !13
  %26 = call i32 @CRYPTO_THREAD_write_lock(ptr noundef %25)
  %27 = icmp ne i32 %26, 0
  %28 = zext i1 %27 to i32
  %29 = call i32 @test_true(ptr noundef @.str.18, i32 noundef 98, ptr noundef @.str.58, i32 noundef %28)
  %30 = icmp ne i32 %29, 0
  br i1 %30, label %31, label %38

31:                                               ; preds = %24
  %32 = load ptr, ptr %2, align 8, !tbaa !13
  %33 = call i32 @CRYPTO_THREAD_unlock(ptr noundef %32)
  %34 = icmp ne i32 %33, 0
  %35 = zext i1 %34 to i32
  %36 = call i32 @test_true(ptr noundef @.str.18, i32 noundef 99, ptr noundef @.str.57, i32 noundef %35)
  %37 = icmp ne i32 %36, 0
  br label %38

38:                                               ; preds = %31, %24, %17, %10
  %39 = phi i1 [ false, %24 ], [ false, %17 ], [ false, %10 ], [ %37, %31 ]
  %40 = zext i1 %39 to i32
  store i32 %40, ptr %3, align 4, !tbaa !4
  %41 = load ptr, ptr %2, align 8, !tbaa !13
  call void @CRYPTO_THREAD_lock_free(ptr noundef %41)
  %42 = load i32, ptr %3, align 4, !tbaa !4
  store i32 %42, ptr %1, align 4
  store i32 1, ptr %4, align 4
  br label %43

43:                                               ; preds = %38, %9
  call void @llvm.lifetime.end.p0(i64 4, ptr %3) #10
  call void @llvm.lifetime.end.p0(i64 8, ptr %2) #10
  %44 = load i32, ptr %1, align 4
  ret i32 %44
}