; Function Attrs: nounwind uwtable
define internal range(i32 0, 2) i32 @test_lock() #1 {
  %1 = tail call ptr @CRYPTO_THREAD_lock_new() #11
  %2 = tail call i32 @test_ptr(ptr noundef nonnull @.str.18, i32 noundef 93, ptr noundef nonnull @.str.55, ptr noundef %1) #11
  %.not = icmp eq i32 %2, 0
  br i1 %.not, label %27, label %3

3:                                                ; preds = %0
  %4 = tail call i32 @CRYPTO_THREAD_read_lock(ptr noundef %1) #11
  %5 = icmp ne i32 %4, 0
  %6 = zext i1 %5 to i32
  %7 = tail call i32 @test_true(ptr noundef nonnull @.str.18, i32 noundef 96, ptr noundef nonnull @.str.56, i32 noundef %6) #11
  %.not7 = icmp eq i32 %7, 0
  br i1 %.not7, label %25, label %8

8:                                                ; preds = %3
  %9 = tail call i32 @CRYPTO_THREAD_unlock(ptr noundef %1) #11
  %10 = icmp ne i32 %9, 0
  %11 = zext i1 %10 to i32
  %12 = tail call i32 @test_true(ptr noundef nonnull @.str.18, i32 noundef 97, ptr noundef nonnull @.str.57, i32 noundef %11) #11
  %.not8 = icmp eq i32 %12, 0
  br i1 %.not8, label %25, label %13

13:                                               ; preds = %8
  %14 = tail call i32 @CRYPTO_THREAD_write_lock(ptr noundef %1) #11
  %15 = icmp ne i32 %14, 0
  %16 = zext i1 %15 to i32
  %17 = tail call i32 @test_true(ptr noundef nonnull @.str.18, i32 noundef 98, ptr noundef nonnull @.str.58, i32 noundef %16) #11
  %.not9 = icmp eq i32 %17, 0
  br i1 %.not9, label %25, label %18

18:                                               ; preds = %13
  %19 = tail call i32 @CRYPTO_THREAD_unlock(ptr noundef %1) #11
  %20 = icmp ne i32 %19, 0
  %21 = zext i1 %20 to i32
  %22 = tail call i32 @test_true(ptr noundef nonnull @.str.18, i32 noundef 99, ptr noundef nonnull @.str.57, i32 noundef %21) #11
  %23 = icmp ne i32 %22, 0
  %24 = zext i1 %23 to i32
  br label %25

25:                                               ; preds = %18, %13, %8, %3
  %26 = phi i32 [ 0, %13 ], [ 0, %8 ], [ 0, %3 ], [ %24, %18 ]
  tail call void @CRYPTO_THREAD_lock_free(ptr noundef %1) #11
  br label %27

27:                                               ; preds = %0, %25
  %.0 = phi i32 [ %26, %25 ], [ 0, %0 ]
  ret i32 %.0
}